; Function Attrs: mustprogress nounwind uwtable
define dso_local void @_ZN7testing10InSequenceD2Ev(ptr noundef nonnull readonly align 1 captures(none) dereferenceable(1) %0) unnamed_addr #6 align 2 personality ptr @__gxx_personality_v0 {
  %2 = load i8, ptr %0, align 1, !tbaa !354, !range !245, !noundef !181
  %3 = trunc nuw i8 %2 to i1
  br i1 %3, label %4, label %35

4:                                                ; preds = %1
  %5 = invoke noundef nonnull align 8 dereferenceable(8) ptr @_ZNK7testing8internal11ThreadLocalIPNS_8SequenceEE16GetOrCreateValueEv(ptr noundef nonnull align 8 dereferenceable(16) @_ZN7testing8internal25g_gmock_implicit_sequenceE)
          to label %_ZNK7testing8internal11ThreadLocalIPNS_8SequenceEE3getEv.exit unwind label %36

_ZNK7testing8internal11ThreadLocalIPNS_8SequenceEE3getEv.exit: ; preds = %4
  %6 = load ptr, ptr %5, align 8, !tbaa !352
  %7 = icmp eq ptr %6, null
  br i1 %7, label %32, label %8

8:                                                ; preds = %_ZNK7testing8internal11ThreadLocalIPNS_8SequenceEE3getEv.exit
  %9 = getelementptr inbounds nuw i8, ptr %6, i64 8
  %10 = load ptr, ptr %9, align 8, !tbaa !65
  %.not.i.i.i = icmp eq ptr %10, null
  br i1 %.not.i.i.i, label %_ZN7testing8SequenceD2Ev.exit, label %11

11:                                               ; preds = %8
  %12 = getelementptr inbounds nuw i8, ptr %10, i64 8
  %13 = load atomic i64, ptr %12 acquire, align 8
  %14 = icmp eq i64 %13, 4294967297
  %15 = trunc i64 %13 to i32
  br i1 %14, label %16, label %24

16:                                               ; preds = %11
  store i32 0, ptr %12, align 8, !tbaa !66
  %17 = getelementptr inbounds nuw i8, ptr %10, i64 12
  store i32 0, ptr %17, align 4, !tbaa !68
  %18 = load ptr, ptr %10, align 8, !tbaa !27
  %19 = getelementptr inbounds nuw i8, ptr %18, i64 16
  %20 = load ptr, ptr %19, align 8
  tail call void %20(ptr noundef nonnull align 8 dereferenceable(16) %10) #34
  %21 = load ptr, ptr %10, align 8, !tbaa !27
  %22 = getelementptr inbounds nuw i8, ptr %21, i64 24
  %23 = load ptr, ptr %22, align 8
  tail call void %23(ptr noundef nonnull align 8 dereferenceable(16) %10) #34
  br label %_ZN7testing8SequenceD2Ev.exit

24:                                               ; preds = %11
  %25 = load i8, ptr @__libc_single_threaded, align 1, !tbaa !13
  %.not.i.i.i.i = icmp eq i8 %25, 0
  br i1 %.not.i.i.i.i, label %28, label %26

26:                                               ; preds = %24
  %27 = add nsw i32 %15, -1
  store i32 %27, ptr %12, align 4, !tbaa !243
  br label %_ZN9__gnu_cxx27__exchange_and_add_dispatchEPii.exit.i.i.i.i

28:                                               ; preds = %24
  %29 = atomicrmw volatile add ptr %12, i32 -1 acq_rel, align 4
  br label %_ZN9__gnu_cxx27__exchange_and_add_dispatchEPii.exit.i.i.i.i

_ZN9__gnu_cxx27__exchange_and_add_dispatchEPii.exit.i.i.i.i: ; preds = %28, %26
  %.0.i.i.i.i.i = phi i32 [ %15, %26 ], [ %29, %28 ]
  %30 = icmp eq i32 %.0.i.i.i.i.i, 1
  br i1 %30, label %31, label %_ZN7testing8SequenceD2Ev.exit, !prof !244

31:                                               ; preds = %_ZN9__gnu_cxx27__exchange_and_add_dispatchEPii.exit.i.i.i.i
  tail call void @_ZNSt16_Sp_counted_baseILN9__gnu_cxx12_Lock_policyE2EE24_M_release_last_use_coldEv(ptr noundef nonnull align 8 dereferenceable(16) %10) #34
  br label %_ZN7testing8SequenceD2Ev.exit

_ZN7testing8SequenceD2Ev.exit:                    ; preds = %8, %16, %_ZN9__gnu_cxx27__exchange_and_add_dispatchEPii.exit.i.i.i.i, %31
  tail call void @_ZdlPvm(ptr noundef nonnull %6, i64 noundef 16) #35
  br label %32

32:                                               ; preds = %_ZN7testing8SequenceD2Ev.exit, %_ZNK7testing8internal11ThreadLocalIPNS_8SequenceEE3getEv.exit
  %33 = invoke noundef ptr @_ZNK7testing8internal11ThreadLocalIPNS_8SequenceEE16GetOrCreateValueEv(ptr noundef nonnull align 8 dereferenceable(16) @_ZN7testing8internal25g_gmock_implicit_sequenceE)
          to label %34 unwind label %36

34:                                               ; preds = %32
  store ptr null, ptr %33, align 8, !tbaa !352
  br label %35

35:                                               ; preds = %34, %1
  ret void

36:                                               ; preds = %32, %4
  %37 = landingpad { ptr, i32 }
          catch ptr null
  %38 = extractvalue { ptr, i32 } %37, 0
  tail call void @__clang_call_terminate(ptr %38) #38
  unreachable
}